; Function Attrs: inlinehint nounwind uwtable
define internal fastcc range(i32 0, 2) i32 @uriOnExitOwnHostUserInfoA(ptr noundef nonnull readonly captures(none) %0, ptr noundef nonnull %1, ptr noundef %2) unnamed_addr #4 {
  %4 = load ptr, ptr %0, align 8, !tbaa !3
  %5 = getelementptr inbounds nuw i8, ptr %4, i64 16
  %6 = load ptr, ptr %5, align 8, !tbaa !33
  %7 = getelementptr inbounds nuw i8, ptr %4, i64 32
  store ptr %6, ptr %7, align 8, !tbaa !37
  store ptr null, ptr %5, align 8, !tbaa !33
  %8 = getelementptr inbounds nuw i8, ptr %4, i64 40
  store ptr %1, ptr %8, align 8, !tbaa !40
  %9 = load ptr, ptr %2, align 8, !tbaa !49
  %10 = tail call ptr %9(ptr noundef nonnull %2, i64 noundef 4) #7
  %11 = load ptr, ptr %0, align 8, !tbaa !3
  %12 = getelementptr inbounds nuw i8, ptr %11, i64 48
  store ptr %10, ptr %12, align 8, !tbaa !38
  %13 = icmp eq ptr %10, null
  br i1 %13, label %28, label %14

14:                                               ; preds = %3
  %15 = getelementptr inbounds nuw i8, ptr %11, i64 32
  %16 = load ptr, ptr %15, align 8, !tbaa !37
  %17 = getelementptr inbounds nuw i8, ptr %11, i64 40
  %18 = load ptr, ptr %17, align 8, !tbaa !40
  %19 = tail call i32 @uriParseIpFourAddressA(ptr noundef nonnull %10, ptr noundef %16, ptr noundef %18) #7
  %.not = icmp eq i32 %19, 0
  br i1 %.not, label %28, label %20

20:                                               ; preds = %14
  %21 = getelementptr inbounds nuw i8, ptr %2, i64 32
  %22 = load ptr, ptr %21, align 8, !tbaa !32
  %23 = load ptr, ptr %0, align 8, !tbaa !3
  %24 = getelementptr inbounds nuw i8, ptr %23, i64 48
  %25 = load ptr, ptr %24, align 8, !tbaa !38
  tail call void %22(ptr noundef nonnull %2, ptr noundef %25) #7
  %26 = load ptr, ptr %0, align 8, !tbaa !3
  %27 = getelementptr inbounds nuw i8, ptr %26, i64 48
  store ptr null, ptr %27, align 8, !tbaa !38
  br label %28

28:                                               ; preds = %14, %20, %3
  %.0 = phi i32 [ 0, %3 ], [ 1, %20 ], [ 1, %14 ]
  ret i32 %.0
}